target datalayout = "e-m:e-p270:32:32-p271:32:32-p272:64:64-i64:64-i128:128-f80:128-n8:16:32:64-S128"
target triple = "x86_64-pc-linux-gnu"

%class.Handle = type { ptr }

@_ZN11ModuleEntryC1E6HandlebP6SymbolS2_S2_P15ClassLoaderData = hidden unnamed_addr alias void (ptr, ptr, i1, ptr, ptr, ptr, ptr), ptr @_ZN11ModuleEntryC2E6HandlebP6SymbolS2_S2_P15ClassLoaderData

; Function Attrs: mustprogress nounwind uwtable
define hidden noundef ptr @_ZN11ModuleEntry24new_unnamed_module_entryE6HandleP15ClassLoaderData(ptr %0, ptr noundef %1) #1 align 2 {
  %3 = alloca i64, align 8
  %4 = alloca i8, align 1
  %5 = alloca i64, align 8
  %6 = alloca %class.Handle, align 8
  %7 = alloca ptr, align 8
  %8 = alloca ptr, align 8
  %9 = alloca %class.Handle, align 8
  %10 = getelementptr inbounds %class.Handle, ptr %6, i32 0, i32 0
  store ptr %0, ptr %10, align 8
  store ptr %1, ptr %7, align 8
  store i64 80, ptr %5, align 8
  %11 = load i64, ptr %5, align 8
  store i64 %11, ptr %3, align 8
  store i8 20, ptr %4, align 1
  %12 = load i64, ptr %3, align 8
  %13 = load i8, ptr %4, align 1
  %14 = call noundef ptr @_Z12AllocateHeapm8MEMFLAGSN17AllocFailStrategy13AllocFailEnumE(i64 noundef %12, i8 noundef zeroext %13, i32 noundef 0) #12
  call void @llvm.memcpy.p0.p0.i64(ptr align 8 %9, ptr align 8 %6, i64 8, i1 false)
  %15 = load ptr, ptr %7, align 8
  %16 = getelementptr inbounds %class.Handle, ptr %9, i32 0, i32 0
  %17 = load ptr, ptr %16, align 8
  call void @_ZN11ModuleEntryC1E6HandlebP6SymbolS2_S2_P15ClassLoaderData(ptr noundef nonnull align 8 dereferenceable(80) %14, ptr %17, i1 noundef zeroext true, ptr noundef null, ptr noundef null, ptr noundef null, ptr noundef %15)
  store ptr %14, ptr %8, align 8
  %18 = load ptr, ptr %8, align 8
  ret ptr %18
}