; Function Attrs: mustprogress nounwind uwtable
define hidden noundef ptr @_ZN11ModuleEntry24new_unnamed_module_entryE6HandleP15ClassLoaderData(ptr %0, ptr noundef %1) local_unnamed_addr #0 align 2 {
  %3 = alloca %class.OopHandle, align 8
  %4 = tail call noundef ptr @_Z12AllocateHeapm8MEMFLAGSN17AllocFailStrategy13AllocFailEnumE(i64 noundef 80, i8 noundef zeroext 20, i32 noundef 0) #16
  call void @llvm.lifetime.start.p0(i64 8, ptr nonnull %3)
  %5 = getelementptr inbounds i8, ptr %4, i64 24
  tail call void @llvm.memset.p0.i64(ptr noundef nonnull align 8 dereferenceable(24) %4, i8 0, i64 24, i1 false)
  store ptr %1, ptr %5, align 8
  %6 = getelementptr inbounds i8, ptr %4, i64 32
  %7 = getelementptr inbounds i8, ptr %4, i64 40
  %8 = getelementptr inbounds i8, ptr %4, i64 48
  %9 = getelementptr inbounds i8, ptr %4, i64 56
  tail call void @llvm.memset.p0.i64(ptr noundef nonnull align 8 dereferenceable(24) %6, i8 0, i64 24, i1 false)
  store i32 -1, ptr %9, align 8
  %10 = getelementptr inbounds i8, ptr %4, i64 60
  %11 = getelementptr inbounds i8, ptr %4, i64 64
  store i8 0, ptr %11, align 8
  store <4 x i8> <i8 1, i8 0, i8 0, i8 1>, ptr %10, align 4
  %12 = icmp eq ptr %0, null
  br i1 %12, label %_ZN6Symbol24maybe_decrement_refcountEPS_.exit.i.i, label %13

13:                                               ; preds = %2
  call void @_ZN15ClassLoaderData10add_handleE6Handle(ptr dead_on_unwind nonnull writable sret(%class.OopHandle) align 8 %3, ptr noundef nonnull align 8 dereferenceable(160) %1, ptr nonnull %0) #16
  %14 = load ptr, ptr %3, align 8
  store ptr %14, ptr %4, align 8
  %.pre = load ptr, ptr %7, align 8
  %.not.i.i.i = icmp eq ptr %.pre, null
  br i1 %.not.i.i.i, label %_ZN6Symbol24maybe_decrement_refcountEPS_.exit.i.i, label %15

15:                                               ; preds = %13
  call void @_ZN6Symbol18decrement_refcountEv(ptr noundef nonnull align 4 dereferenceable(8) %.pre) #16
  br label %_ZN6Symbol24maybe_decrement_refcountEPS_.exit.i.i

_ZN6Symbol24maybe_decrement_refcountEPS_.exit.i.i: ; preds = %2, %15, %13
  store ptr null, ptr %7, align 8
  %16 = load ptr, ptr %8, align 8
  %.not.i.i11.i = icmp eq ptr %16, null
  br i1 %.not.i.i11.i, label %_ZN11ModuleEntryC2E6HandlebP6SymbolS2_S2_P15ClassLoaderData.exit, label %17

17:                                               ; preds = %_ZN6Symbol24maybe_decrement_refcountEPS_.exit.i.i
  call void @_ZN6Symbol18decrement_refcountEv(ptr noundef nonnull align 4 dereferenceable(8) %16) #16
  br label %_ZN11ModuleEntryC2E6HandlebP6SymbolS2_S2_P15ClassLoaderData.exit

_ZN11ModuleEntryC2E6HandlebP6SymbolS2_S2_P15ClassLoaderData.exit: ; preds = %_ZN6Symbol24maybe_decrement_refcountEPS_.exit.i.i, %17
  store ptr null, ptr %8, align 8
  call void @_ZN10JfrTraceId6assignEPK11ModuleEntry(ptr noundef nonnull %4) #16
  call void @llvm.lifetime.end.p0(i64 8, ptr nonnull %3)
  ret ptr %4
}